; Function Attrs: nounwind uwtable
define ptr @cuddCacheLookup2(ptr noundef %0, ptr noundef %1, ptr noundef %2, ptr noundef %3) local_unnamed_addr #0 {
  %5 = getelementptr inbounds nuw i8, ptr %0, i64 88
  %6 = load ptr, ptr %5, align 8, !tbaa !28
  %7 = ptrtoint ptr %2 to i64
  %8 = and i64 %7, -2
  %9 = inttoptr i64 %8 to ptr
  %10 = getelementptr inbounds nuw i8, ptr %9, i64 32
  %11 = load i64, ptr %10, align 8, !tbaa !40
  %12 = shl i64 %11, 1
  %13 = and i64 %7, 1
  %14 = or disjoint i64 %12, %13
  %15 = trunc i64 %14 to i32
  %16 = ptrtoint ptr %1 to i64
  %17 = trunc i64 %16 to i32
  %18 = add i32 %15, %17
  %19 = mul i32 %18, 12582917
  %20 = ptrtoint ptr %3 to i64
  %21 = and i64 %20, -2
  %22 = inttoptr i64 %21 to ptr
  %23 = getelementptr inbounds nuw i8, ptr %22, i64 32
  %24 = load i64, ptr %23, align 8, !tbaa !40
  %25 = shl i64 %24, 1
  %26 = and i64 %20, 1
  %27 = or disjoint i64 %25, %26
  %28 = trunc i64 %27 to i32
  %29 = add i32 %19, %28
  %30 = mul i32 %29, 4256249
  %31 = getelementptr inbounds nuw i8, ptr %0, i64 100
  %32 = load i32, ptr %31, align 4, !tbaa !31
  %33 = lshr i32 %30, %32
  %34 = sext i32 %33 to i64
  %35 = getelementptr inbounds %struct.DdCache, ptr %6, i64 %34
  %36 = getelementptr inbounds nuw i8, ptr %35, i64 24
  %37 = load ptr, ptr %36, align 8, !tbaa !41
  %.not = icmp eq ptr %37, null
  br i1 %.not, label %60, label %38

38:                                               ; preds = %4
  %39 = load ptr, ptr %35, align 8, !tbaa !45
  %40 = icmp eq ptr %39, %2
  br i1 %40, label %41, label %60

41:                                               ; preds = %38
  %42 = getelementptr inbounds nuw i8, ptr %35, i64 8
  %43 = load ptr, ptr %42, align 8, !tbaa !46
  %44 = icmp eq ptr %43, %3
  br i1 %44, label %45, label %60

45:                                               ; preds = %41
  %46 = getelementptr inbounds nuw i8, ptr %35, i64 16
  %47 = load i64, ptr %46, align 8, !tbaa !47
  %48 = icmp eq i64 %47, %16
  br i1 %48, label %49, label %60

49:                                               ; preds = %45
  %50 = ptrtoint ptr %37 to i64
  %51 = and i64 %50, -2
  %52 = inttoptr i64 %51 to ptr
  %53 = getelementptr inbounds nuw i8, ptr %0, i64 112
  %54 = load double, ptr %53, align 8, !tbaa !36
  %55 = fadd double %54, 1.000000e+00
  store double %55, ptr %53, align 8, !tbaa !36
  %56 = getelementptr inbounds nuw i8, ptr %52, i64 4
  %57 = load i32, ptr %56, align 4, !tbaa !49
  %58 = icmp eq i32 %57, 0
  br i1 %58, label %59, label %75

59:                                               ; preds = %49
  tail call void @cuddReclaim(ptr noundef nonnull %0, ptr noundef nonnull %52) #14
  %.pre = load ptr, ptr %36, align 8, !tbaa !41
  br label %75

60:                                               ; preds = %45, %41, %38, %4
  %61 = getelementptr inbounds nuw i8, ptr %0, i64 104
  %62 = load double, ptr %61, align 8, !tbaa !35
  %63 = fadd double %62, 1.000000e+00
  store double %63, ptr %61, align 8, !tbaa !35
  %64 = getelementptr inbounds nuw i8, ptr %0, i64 128
  %65 = load i32, ptr %64, align 8, !tbaa !33
  %66 = icmp sgt i32 %65, -1
  br i1 %66, label %67, label %75

67:                                               ; preds = %60
  %68 = getelementptr inbounds nuw i8, ptr %0, i64 112
  %69 = load double, ptr %68, align 8, !tbaa !36
  %70 = getelementptr inbounds nuw i8, ptr %0, i64 120
  %71 = load double, ptr %70, align 8, !tbaa !34
  %72 = fmul double %63, %71
  %73 = fcmp ogt double %69, %72
  br i1 %73, label %74, label %75

74:                                               ; preds = %67
  tail call void @cuddCacheResize(ptr noundef nonnull %0)
  br label %75

75:                                               ; preds = %49, %59, %60, %67, %74
  %.0 = phi ptr [ null, %74 ], [ null, %67 ], [ null, %60 ], [ %.pre, %59 ], [ %37, %49 ]
  ret ptr %.0
}